ccopy_reg
_reconstructor
p0
(cpandas.core.frame
DataFrame
p1
c__builtin__
object
p2
Ntp3
Rp4
(dp5
S'_metadata'
p6
(lp7
sS'_typ'
p8
S'dataframe'
p9
sS'_data'
p10
g0
(cpandas.core.internals
BlockManager
p11
g2
Ntp12
Rp13
((lp14
cpandas.core.indexes.base
_new_Index
p15
(cpandas.core.indexes.base
Index
p16
(dp17
S'data'
p18
cnumpy.core.multiarray
_reconstruct
p19
(cnumpy
ndarray
p20
(I0
tp21
S'b'
p22
tp23
Rp24
(I1
(L7L
tp25
cnumpy
dtype
p26
(S'O8'
p27
I0
I1
tp28
Rp29
(I3
S'|'
p30
NNNI-1
I-1
I63
tp31
bI00
(lp32
S'time'
p33
aS'price'
p34
aS'side'
p35
aS'last_size'
p36
aS'best_bid'
p37
aS'best_ask'
p38
aS'trade_id'
p39
atp40
bsS'name'
p41
Nstp42
Rp43
ag15
(cpandas.core.indexes.range
RangeIndex
p44
(dp45
S'start'
p46
I0
sS'step'
p47
I1
sS'stop'
p48
I8
sg41
Nstp49
Rp50
a(lp51
g19
(g20
(I0
tp52
g22
tp53
Rp54
(I1
(L1L
L8L
tp55
g26
(S'i8'
p56
I0
I1
tp57
Rp58
(I3
S'<'
p59
NNNI-1
I-1
I0
tp60
bI00
S'K\x03i\x02\x00\x00\x00\x00L\x03i\x02\x00\x00\x00\x00M\x03i\x02\x00\x00\x00\x00R\x03i\x02\x00\x00\x00\x00U\x03i\x02\x00\x00\x00\x00Z\x03i\x02\x00\x00\x00\x00[\x03i\x02\x00\x00\x00\x00d\x03i\x02\x00\x00\x00\x00'
p61
tp62
bag19
(g20
(I0
tp63
g22
tp64
Rp65
(I1
(L6L
L8L
tp66
g29
I00
(lp67
V2018-09-21T02:45:02.410000Z
p68
aV2018-09-21T02:45:06.180000Z
p69
aV2018-09-21T02:45:18.306000Z
p70
aV2018-09-21T02:45:23.664000Z
p71
aV2018-09-21T02:45:25.230000Z
p72
aV2018-09-21T02:45:25.230000Z
p73
aV2018-09-21T02:45:25.665000Z
p74
aV2018-09-21T02:45:26.634000Z
p75
aV223.49000000
p76
aV223.50000000
p77
aV223.50000000
p78
aV223.50000000
p79
aV223.50000000
p80
aV223.53000000
p81
aV223.53000000
p82
aV223.58000000
p83
aVsell
p84
aVbuy
p85
aVbuy
p86
aVbuy
p87
aVbuy
p88
aVbuy
p89
aVsell
p90
aVbuy
p91
aV0.99998853
p92
aV1.09666433
p93
aV0.30000000
p94
aV78.61960000
p95
aV2.01075245
p96
aV0.04696313
p97
aV0.15195221
p98
aV0.04564436
p99
aV223.49
p100
aV223.49
p101
aV223.49
p102
aV223.49
p103
aV223.49
p104
aV223.53
p105
aV223.53
p106
aV223.53
p107
aV223.5
p108
aV223.5
p109
aV223.5
p110
aV223.5
p111
aV223.5
p112
aV223.54
p113
aV223.54
p114
aV223.58
p115
atp116
ba(lp117
g15
(g16
(dp118
g18
g19
(g20
(I0
tp119
g22
tp120
Rp121
(I1
(L1L
tp122
g29
I00
(lp123
g39
atp124
bsg41
Nstp125
Rp126
ag15
(g16
(dp127
g18
g19
(g20
(I0
tp128
g22
tp129
Rp130
(I1
(L6L
tp131
g29
I00
(lp132
g33
ag34
ag35
ag36
ag37
ag38
atp133
bsg41
Nstp134
Rp135
a(dp136
S'0.14.1'
p137
(dp138
S'axes'
p139
g14
sS'blocks'
p140
(lp141
(dp142
S'mgr_locs'
p143
c__builtin__
slice
p144
(L6L
L7L
I1
tp145
Rp146
sS'values'
p147
g54
sa(dp148
g143
g144
(I0
I6
L1L
tp149
Rp150
sg147
g65
sasstp151
bsb.