(lp0
(lp1
cdatetime
datetime
p2
(S'\x07\xe2\t\x18\x13\x01 \x0e\x15x'
p3
tp4
Rp5
aF234.34343012731998
aI2
aI238
aa(lp6
g2
(S'\x07\xe2\t\x18\x13\x01!\x0ec\x98'
p7
tp8
Rp9
aF234.33497973404002
aI4
aI239
aa(lp10
g9
aF234.32
aI1
aI240
aa(lp11
g2
(S'\x07\xe2\t\x18\x13\x011\x0bq\xb0'
p12
tp13
Rp14
aF234.32251187267997
aI3
aI241
aa(lp15
g2
(S'\x07\xe2\t\x18\x13\x02\x0c\x03\xef\xd0'
p16
tp17
Rp18
aF234.29582674574004
aI5
aI242
aa(lp19
g2
(S'\x07\xe2\t\x18\x13\x02\x10\x0bB\xd0'
p20
tp21
Rp22
aF234.39644459592
aI4
aI243
aa(lp23
g22
aF234.45999999999998
aI1
aI244
aa(lp24
g22
aF234.45999999999998
aI1
aI245
aa(lp25
g2
(S'\x07\xe2\t\x18\x13\x027\x04\x16\xe0'
p26
tp27
Rp28
aF234.41571332691996
aI6
aI246
aa(lp29
g2
(S'\x07\xe2\t\x18\x13\x03\x04\x06\xb6\xc0'
p30
tp31
Rp32
aF234.36999999999998
aI2
aI247
aa(lp33
g2
(S'\x07\xe2\t\x18\x13\x03"\rR('
p34
tp35
Rp36
aF234.39228149046
aI7
aI248
aa(lp37
g2
(S'\x07\xe2\t\x18\x13\x034\x00e\x90'
p38
tp39
Rp40
aF234.6804050113
aI21
aI249
aa(lp41
g40
aF235.0
aI1
aI250
aa(lp42
g40
aF235.0
aI1
aI251
aa(lp43
g40
aF235.0
aI1
aI252
aa(lp44
g40
aF235.0
aI1
aI253
aa(lp45
g40
aF235.0
aI1
aI254
aa(lp46
g40
aF235.0
aI1
aI255
aa(lp47
g40
aF235.0
aI1
aI256
aa(lp48
g40
aF235.0
aI1
aI257
aa(lp49
g40
aF235.0
aI1
aI258
aa(lp50
g2
(S'\x07\xe2\t\x18\x13\x034\x00e\x90'
p51
tp52
Rp53
aF235.0
aI2
aI259
aa(lp54
g2
(S'\x07\xe2\t\x18\x13\x034\x00e\x90'
p55
tp56
Rp57
aF235.0
aI2
aI260
aa(lp58
g57
aF235.0
aI1
aI261
aa(lp59
g57
aF235.0
aI1
aI262
aa(lp60
g57
aF235.0
aI1
aI263
aa(lp61
g57
aF235.0
aI1
aI264
aa(lp62
g57
aF235.0
aI1
aI265
aa(lp63
g57
aF235.0
aI1
aI266
aa(lp64
g57
aF235.0
aI1
aI267
aa(lp65
g57
aF235.0
aI1
aI268
aa(lp66
g57
aF235.0
aI1
aI269
aa(lp67
g57
aF235.0
aI1
aI270
aa(lp68
g57
aF235.0
aI1
aI271
aa(lp69
g57
aF235.0
aI1
aI272
aa(lp70
g57
aF235.0
aI1
aI273
aa(lp71
g57
aF235.0
aI1
aI274
aa(lp72
g57
aF235.0
aI1
aI275
aa(lp73
g57
aF235.0
aI1
aI276
aa(lp74
g57
aF235.0
aI1
aI277
aa(lp75
g57
aF235.0
aI1
aI278
aa(lp76
g57
aF235.0
aI1
aI279
aa(lp77
g57
aF235.0
aI1
aI280
aa(lp78
g2
(S'\x07\xe2\t\x18\x13\x034\x02\xc6\xf0'
p79
tp80
Rp81
aF235.00523556068
aI2
aI281
aa(lp82
g2
(S'\x07\xe2\t\x18\x13\x04 \x02\x8cX'
p83
tp84
Rp85
aF235.16552947104006
aI9
aI282
aa(lp86
g2
(S'\x07\xe2\t\x18\x13\x04%\x08)\xd8'
p87
tp88
Rp89
aF234.90264581083997
aI4
aI283
aa(lp90
g89
aF234.9
aI1
aI284
aa(lp91
g89
aF234.9
aI1
aI285
aa(lp92
g89
aF234.9
aI1
aI286
aa(lp93
g89
aF234.9
aI1
aI287
aa(lp94
g2
(S'\x07\xe2\t\x18\x13\x05\x1e\x06I`'
p95
tp96
Rp97
aF234.70485557524003
aI14
aI288
aa(lp98
g2
(S'\x07\xe2\t\x18\x13\x06\x0b\x06\x1eh'
p99
tp100
Rp101
aF234.6514043487
aI5
aI289
aa(lp102
g2
(S'\x07\xe2\t\x18\x13\x07\x08\n\xba\x18'
p103
tp104
Rp105
aF234.48240303909998
aI9
aI290
aa(lp106
g105
aF234.51
aI1
aI291
aa(lp107
g105
aF234.51
aI1
aI292
aa(lp108
g2
(S'\x07\xe2\t\x18\x13\x07\x0e\t\xdbp'
p109
tp110
Rp111
aF234.50028120744
aI2
aI293
aa(lp112
g111
aF234.5
aI1
aI294
aa(lp113
g2
(S"\x07\xe2\t\x18\x13\x07'\x00\x9c@"
p114
tp115
Rp116
aF234.5
aI2
aI295
aa(lp117
g2
(S'\x07\xe2\t\x18\x13\x078\x01s\x18'
p118
tp119
Rp120
aF234.50763312896
aI4
aI296
aa(lp121
g2
(S'\x07\xe2\t\x18\x13\x07;\x08`\x88'
p122
tp123
Rp124
aF234.50654961918
aI3
aI297
aa(lp125
g2
(S'\x07\xe2\t\x18\x13\x08\x0f\x0c5\x00'
p126
tp127
Rp128
aF234.53398540668005
aI4
aI298
aa.