(lp1
(lp2
cdatetime
datetime
p3
(S'\x07\xe2\t\x1a\x15\x02:\x0b\xbb\xe8'
tRp4
aF219.61999999999998
aI3
aI6220
aa(lp5
g4
aF219.61999999999998
aI1
aI6221
aa(lp6
g4
aF219.61999999999998
aI1
aI6222
aa(lp7
g3
(S'\x07\xe2\t\x1a\x15\x03\x01\n\xae`'
tRp8
aF219.61316253640001
aI3
aI6223
aa(lp9
g3
(S'\x07\xe2\t\x1a\x15\x03\t\x0c%`'
tRp10
aF219.52085473572001
aI2
aI6224
aa(lp11
g3
(S'\x07\xe2\t\x1a\x15\x04\x0c\x0c\xaa0'
tRp12
aF219.63302656625993
aI7
aI6225
aa(lp13
g3
(S'\x07\xe2\t\x1a\x15\x04\r\x07\xdf\xa0'
tRp14
aF219.42373302936002
aI3
aI6226
aa(lp15
g3
(S"\x07\xe2\t\x1a\x15\x04'\x07\x0c\xb0"
tRp16
aF219.60480687792
aI5
aI6227
aa(lp17
g16
aF219.66
aI1
aI6228
aa(lp18
g16
aF219.66
aI1
aI6229
aa(lp19
g16
aF219.66
aI1
aI6230
aa(lp20
g16
aF219.66
aI1
aI6231
aa(lp21
g3
(S'\x07\xe2\t\x1a\x15\x045\x05\x1c\x98'
tRp22
aF219.68376463896001
aI5
aI6232
aa(lp23
g3
(S'\x07\xe2\t\x1a\x15\x05\x18\x0b\x94\xd8'
tRp24
aF219.70431433797995
aI8
aI6233
aa(lp25
g24
aF219.69999999999999
aI1
aI6234
aa(lp26
g3
(S'\x07\xe2\t\x1a\x15\x05%\x05$h'
tRp27
aF219.70089796859997
aI4
aI6235
aa(lp28
g27
aF219.69999999999999
aI1
aI6236
aa(lp29
g27
aF219.69999999999999
aI1
aI6237
aa(lp30
g27
aF219.69999999999999
aI1
aI6238
aa(lp31
g27
aF219.69999999999999
aI1
aI6239
aa(lp32
g27
aF219.69999999999999
aI1
aI6240
aa(lp33
g27
aF219.69999999999999
aI1
aI6241
aa(lp34
g27
aF219.69999999999999
aI1
aI6242
aa(lp35
g3
(S'\x07\xe2\t\x1a\x15\x05%\x05$h'
tRp36
aF219.69999999999999
aI3
aI6243
aa(lp37
g3
(S'\x07\xe2\t\x1a\x15\x05,\x0c\xb2\x00'
tRp38
aF219.70277722895997
aI2
aI6244
aa(lp39
g3
(S'\x07\xe2\t\x1a\x15\x054\x03\x99\xe0'
tRp40
aF219.71000000000004
aI3
aI6245
aa(lp41
g3
(S'\x07\xe2\t\x1a\x15\x06\x00\t\x10P'
tRp42
aF219.708831
aI5
aI6246
aa(lp43
g3
(S'\x07\xe2\t\x1a\x15\x06\x03\x07\x10\x98'
tRp44
aF219.70673292790002
aI2
aI6247
aa(lp45
g3
(S'\x07\xe2\t\x1a\x15\x06\x04\x01\x9e\x10'
tRp46
aF219.70272756849999
aI4
aI6248
aa(lp47
g3
(S'\x07\xe2\t\x1a\x15\x06\x05\x0b\xbf\xd0'
tRp48
aF219.70191563149996
aI2
aI6249
aa(lp49
g48
aF219.69999999999999
aI1
aI6250
aa(lp50
g48
aF219.69999999999999
aI1
aI6251
aa(lp51
g3
(S'\x07\xe2\t\x1a\x15\x06\x06\x01\x96@'
tRp52
aF219.69999999999999
aI9
aI6252
aa(lp53
g52
aF219.69999999999999
aI1
aI6253
aa(lp54
g52
aF219.69999999999999
aI1
aI6254
aa(lp55
g3
(S'\x07\xe2\t\x1a\x15\x06%\x030h'
tRp56
aF219.63966155081999
aI8
aI6255
aa(lp57
g3
(S'\x07\xe2\t\x1a\x15\x06/\x08\xe5X'
tRp58
aF219.62732151947998
aI2
aI6256
aa(lp59
g58
aF219.63000000000002
aI1
aI6257
aa(lp60
g3
(S'\x07\xe2\t\x1a\x15\x06/\x08\xe5X'
tRp61
aF219.63769372487999
aI2
aI6258
aa(lp62
g61
aF219.66
aI1
aI6259
aa(lp63
g61
aF219.66
aI1
aI6260
aa(lp64
g61
aF219.66
aI1
aI6261
aa(lp65
g3
(S'\x07\xe2\t\x1a\x15\x06/\x08\xe5X'
tRp66
aF219.68790404943996
aI3
aI6262
aa(lp67
g66
aF219.80000000000001
aI1
aI6263
aa(lp68
g66
aF219.80000000000001
aI1
aI6264
aa(lp69
g66
aF219.80000000000001
aI1
aI6265
aa(lp70
g66
aF219.80000000000001
aI1
aI6266
aa(lp71
g3
(S'\x07\xe2\t\x1a\x15\x06:\tZ\x88'
tRp72
aF219.76985209059998
aI3
aI6267
aa(lp73
g3
(S'\x07\xe2\t\x1a\x15\x07\x05\x00\xe6x'
tRp74
aF219.72178378947999
aI5
aI6268
aa(lp75
g3
(S'\x07\xe2\t\x1a\x15\x07\x07\x03\xe4\x18'
tRp76
aF219.75981306879999
aI2
aI6269
aa(lp77
g3
(S'\x07\xe2\t\x1a\x15\x07\x07\x03\xe4\x18'
tRp78
aF219.75994693120001
aI2
aI6270
aa(lp79
g78
aF219.75999999999999
aI1
aI6271
aa(lp80
g3
(S'\x07\xe2\t\x1a\x15\x07(\t\x1f\xf0'
tRp81
aF219.65569577555999
aI11
aI6272
aa(lp82
g3
(S'\x07\xe2\t\x1a\x15\x075\r\x81\x08'
tRp83
aF219.6236154307
aI3
aI6273
aa(lp84
g3
(S'\x07\xe2\t\x1a\x15\x078\x00U\xf0'
tRp85
aF219.61999999999998
aI3
aI6274
aa(lp86
g3
(S'\x07\xe2\t\x1a\x15\x08\x00\x0e\xe4\x80'
tRp87
aF219.62087899980003
aI4
aI6275
aa(lp88
g87
aF219.61999999999998
aI1
aI6276
aa(lp89
g87
aF219.61999999999998
aI1
aI6277
aa(lp90
g3
(S'\x07\xe2\t\x1a\x15\x08(\n)\x90'
tRp91
aF219.48620300297998
aI8
aI6278
aa(lp92
g91
aF219.56999999999999
aI1
aI6279
aa(lp93
g3
(S'\x07\xe2\t\x1a\x15\t\x0f\x06\x87\xe0'
tRp94
aF219.55627558675997
aI6
aI6280
aa.