(lp0
(lp1
cdatetime
datetime
p2
(S'\x07\xe2\t\x19\x01 2\x02\x94('
p3
tp4
Rp5
aF222.99815156256003
aI4
aI1465
aa(lp6
g2
(S'\x07\xe2\t\x19\x01!\x0e\x00\x00\x00'
p7
tp8
Rp9
aF222.99623265102
aI4
aI1466
aa(lp10
g2
(S'\x07\xe2\t\x19\x01!\x0f\x04\xda0'
p11
tp12
Rp13
aF222.99168926408
aI2
aI1467
aa(lp14
g2
(S'\x07\xe2\t\x19\x01!\x11\x0c\xc9p'
p15
tp16
Rp17
aF222.99339105404002
aI2
aI1468
aa(lp18
g2
(S'\x07\xe2\t\x19\x01!\x12\t\xd3\xa0'
p19
tp20
Rp21
aF223.00000000000006
aI3
aI1469
aa(lp22
g2
(S'\x07\xe2\t\x19\x01!(\x0c\x9a\x90'
p23
tp24
Rp25
aF222.99954014090002
aI6
aI1470
aa(lp26
g25
aF223.0
aI1
aI1471
aa(lp27
g25
aF223.0
aI1
aI1472
aa(lp28
g25
aF223.0
aI1
aI1473
aa(lp29
g25
aF223.0
aI1
aI1474
aa(lp30
g2
(S'\x07\xe2\t\x19\x01!1\x08\xf8\xe0'
p31
tp32
Rp33
aF223.0564493768
aI5
aI1475
aa(lp34
g2
(S'\x07\xe2\t\x19\x01"\r\x00\xd6\xd8'
p35
tp36
Rp37
aF223.1030769756
aI10
aI1476
aa(lp38
g2
(S'\x07\xe2\t\x19\x01"%\x07?x'
p39
tp40
Rp41
aF223.06414441852002
aI7
aI1477
aa(lp42
g2
(S'\x07\xe2\t\x19\x01#\x08\x03\x1c\xe0'
p43
tp44
Rp45
aF223.12999999999997
aI3
aI1478
aa(lp46
g45
aF223.13000000000002
aI1
aI1479
aa(lp47
g45
aF223.13000000000002
aI1
aI1480
aa(lp48
g45
aF223.13000000000002
aI1
aI1481
aa(lp49
g45
aF223.13000000000002
aI1
aI1482
aa(lp50
g45
aF223.13000000000002
aI1
aI1483
aa(lp51
g45
aF223.13000000000002
aI1
aI1484
aa(lp52
g45
aF223.13000000000002
aI1
aI1485
aa(lp53
g45
aF223.13000000000002
aI1
aI1486
aa(lp54
g45
aF223.13000000000002
aI1
aI1487
aa(lp55
g2
(S'\x07\xe2\t\x19\x01#\x08\x03\x1c\xe0'
p56
tp57
Rp58
aF223.12999999999997
aI2
aI1488
aa(lp59
g58
aF223.13000000000002
aI1
aI1489
aa(lp60
g2
(S'\x07\xe2\t\x19\x01#\x0b\n\x1d\xd8'
p61
tp62
Rp63
aF223.1310651504
aI2
aI1490
aa(lp64
g63
aF223.20999999999998
aI1
aI1491
aa(lp65
g2
(S'\x07\xe2\t\x19\x01#\x0c\x0c\r\xf0'
p66
tp67
Rp68
aF223.21596906518
aI4
aI1492
aa(lp69
g68
aF223.21999999999997
aI1
aI1493
aa(lp70
g68
aF223.21999999999997
aI1
aI1494
aa(lp71
g68
aF223.21999999999997
aI1
aI1495
aa(lp72
g68
aF223.21999999999997
aI1
aI1496
aa(lp73
g68
aF223.21999999999997
aI1
aI1497
aa(lp74
g68
aF223.21999999999997
aI1
aI1498
aa(lp75
g68
aF223.21999999999997
aI1
aI1499
aa(lp76
g68
aF223.21999999999997
aI1
aI1500
aa(lp77
g2
(S'\x07\xe2\t\x19\x01#\x0c\x0c\xaa0'
p78
tp79
Rp80
aF223.2349072514
aI2
aI1501
aa(lp81
g80
aF223.25
aI1
aI1502
aa(lp82
g80
aF223.25
aI1
aI1503
aa(lp83
g80
aF223.25
aI1
aI1504
aa(lp84
g2
(S'\x07\xe2\t\x19\x01#\x0c\rR('
p85
tp86
Rp87
aF223.2748455121
aI2
aI1505
aa(lp88
g2
(S'\x07\xe2\t\x19\x01#\x0e\x05W0'
p89
tp90
Rp91
aF223.4793824208
aI2
aI1506
aa(lp92
g91
aF223.5
aI1
aI1507
aa(lp93
g91
aF223.5
aI1
aI1508
aa(lp94
g91
aF223.5
aI1
aI1509
aa(lp95
g91
aF223.5
aI1
aI1510
aa(lp96
g91
aF223.5
aI1
aI1511
aa(lp97
g91
aF223.5
aI1
aI1512
aa(lp98
g2
(S'\x07\xe2\t\x19\x01#\x12\n\xd5p'
p99
tp100
Rp101
aF223.5
aI2
aI1513
aa(lp102
g2
(S'\x07\xe2\t\x19\x01#&\r\xa40'
p103
tp104
Rp105
aF223.5
aI3
aI1514
aa(lp106
g105
aF223.5
aI1
aI1515
aa(lp107
g105
aF223.5
aI1
aI1516
aa(lp108
g105
aF223.5
aI1
aI1517
aa(lp109
g105
aF223.5
aI1
aI1518
aa(lp110
g105
aF223.5
aI1
aI1519
aa(lp111
g105
aF223.5
aI1
aI1520
aa(lp112
g105
aF223.5
aI1
aI1521
aa(lp113
g105
aF223.5
aI1
aI1522
aa(lp114
g105
aF223.5
aI1
aI1523
aa(lp115
g2
(S'\x07\xe2\t\x19\x01#)\x0b\x1b\xc0'
p116
tp117
Rp118
aF223.5
aI2
aI1524
aa(lp119
g2
(S'\x07\xe2\t\x19\x01#)\r\x94\x90'
p120
tp121
Rp122
aF223.54817619659997
aI2
aI1525
aa.