(lp1
(lp2
cdatetime
datetime
p3
(S'\x07\xe2\t\x1a\x03\x0c&\x06I`'
tRp4
aF209.28000000000003
aI1
aI1164
aa(lp5
g4
aF209.28000000000003
aI1
aI1165
aa(lp6
g4
aF209.28000000000003
aI1
aI1166
aa(lp7
g4
aF209.28000000000003
aI1
aI1167
aa(lp8
g4
aF209.28000000000003
aI1
aI1168
aa(lp9
g3
(S'\x07\xe2\t\x1a\x03\x0c-\x08AH'
tRp10
aF209.25872365187996
aI8
aI1169
aa(lp11
g3
(S'\x07\xe2\t\x1a\x03\x0c0\x04:\x08'
tRp12
aF209.21123438531998
aI2
aI1170
aa(lp13
g3
(S'\x07\xe2\t\x1a\x03\x0c5\x07^\xb8'
tRp14
aF209.27004853630001
aI2
aI1171
aa(lp15
g3
(S'\x07\xe2\t\x1a\x03\r\r\x03\x15\x10'
tRp16
aF209.29822671828001
aI6
aI1172
aa(lp17
g3
(S'\x07\xe2\t\x1a\x03\r!\x04x\x88'
tRp18
aF209.29766802616004
aI6
aI1173
aa(lp19
g3
(S'\x07\xe2\t\x1a\x03\r3\x03\xb1P'
tRp20
aF209.30000000000004
aI2
aI1174
aa(lp21
g3
(S'\x07\xe2\t\x1a\x03\x0e\x16\x01g`'
tRp22
aF209.29581613518002
aI6
aI1175
aa(lp23
g3
(S'\x07\xe2\t\x1a\x03\x0e\x17\tZ\x88'
tRp24
aF209.46436966699997
aI4
aI1176
aa(lp25
g24
aF209.59999999999999
aI1
aI1177
aa(lp26
g24
aF209.59999999999999
aI1
aI1178
aa(lp27
g24
aF209.59999999999999
aI1
aI1179
aa(lp28
g3
(S'\x07\xe2\t\x1a\x03\x0e\x19\x00\x1f@'
tRp29
aF209.64054021056
aI4
aI1180
aa(lp30
g29
aF209.68000000000001
aI1
aI1181
aa(lp31
g29
aF209.68000000000001
aI1
aI1182
aa(lp32
g29
aF209.68000000000001
aI1
aI1183
aa(lp33
g29
aF209.68000000000001
aI1
aI1184
aa(lp34
g3
(S'\x07\xe2\t\x1a\x03\x0e\x1b\x0bJ\xa0'
tRp35
aF209.75659042008002
aI7
aI1185
aa(lp36
g35
aF209.81999999999999
aI1
aI1186
aa(lp37
g35
aF209.81999999999999
aI1
aI1187
aa(lp38
g35
aF209.81999999999999
aI1
aI1188
aa(lp39
g35
aF209.81999999999999
aI1
aI1189
aa(lp40
g3
(S'\x07\xe2\t\x1a\x03\x0e\x1c\x05\xeb\xa0'
tRp41
aF209.87298318635999
aI2
aI1190
aa(lp42
g41
aF209.94999999999999
aI1
aI1191
aa(lp43
g41
aF209.94999999999999
aI1
aI1192
aa(lp44
g41
aF209.94999999999999
aI1
aI1193
aa(lp45
g41
aF209.94999999999999
aI1
aI1194
aa(lp46
g3
(S'\x07\xe2\t\x1a\x03\x0e\x1c\x07\xfe\xe0'
tRp47
aF209.94999999999999
aI2
aI1195
aa(lp48
g3
(S"\x07\xe2\t\x1a\x03\x0e'\x0e\xd4\xe0"
tRp49
aF209.91331802337999
aI2
aI1196
aa(lp50
g3
(S'\x07\xe2\t\x1a\x03\x0e3\x04\x12\xf8'
tRp51
aF209.99778269735998
aI7
aI1197
aa(lp52
g51
aF210.05000000000001
aI1
aI1198
aa(lp53
g51
aF210.05000000000001
aI1
aI1199
aa(lp54
g51
aF210.05000000000001
aI1
aI1200
aa(lp55
g51
aF210.05000000000001
aI1
aI1201
aa(lp56
g3
(S'\x07\xe2\t\x1a\x03\x0f\x05\n\xaax'
tRp57
aF210.05000000000004
aI4
aI1202
aa(lp58
g3
(S'\x07\xe2\t\x1a\x03\x0f\x08\x02\xab\x98'
tRp59
aF210.05000000000004
aI4
aI1203
aa(lp60
g3
(S'\x07\xe2\t\x1a\x03\x0f\x11\x0388'
tRp61
aF210.05000000000001
aI4
aI1204
aa(lp62
g61
aF210.05000000000001
aI1
aI1205
aa(lp63
g3
(S'\x07\xe2\t\x1a\x03\x0f\x12\x00\x94p'
tRp64
aF210.04982722052
aI2
aI1206
aa(lp65
g3
(S'\x07\xe2\t\x1a\x03\x0f\x12\x00\x94p'
tRp66
aF210.02148166156002
aI2
aI1207
aa(lp67
g3
(S'\x07\xe2\t\x1a\x03\x0f\x1e\x06\xd6\x00'
tRp68
aF210.01581083614002
aI4
aI1208
aa(lp69
g68
aF210.02000000000004
aI1
aI1209
aa(lp70
g3
(S'\x07\xe2\t\x1a\x03\x0f\x1f\x03\xc4\xd8'
tRp71
aF210.01510825324004
aI4
aI1210
aa(lp72
g71
aF210.00999999999999
aI1
aI1211
aa(lp73
g71
aF210.00999999999999
aI1
aI1212
aa(lp74
g71
aF210.00999999999999
aI1
aI1213
aa(lp75
g3
(S'\x07\xe2\t\x1a\x03\x0f!\x02U\xa8'
tRp76
aF210.00696869005998
aI3
aI1214
aa(lp77
g3
(S'\x07\xe2\t\x1a\x03\x0f!\x03C\xf0'
tRp78
aF209.99999999999994
aI4
aI1215
aa(lp79
g78
aF210
aI1
aI1216
aa(lp80
g78
aF210
aI1
aI1217
aa(lp81
g78
aF210
aI1
aI1218
aa(lp82
g78
aF210
aI1
aI1219
aa(lp83
g78
aF210
aI1
aI1220
aa(lp84
g3
(S'\x07\xe2\t\x1a\x03\x0f%\x00U\xf0'
tRp85
aF209.80275483024002
aI3
aI1221
aa(lp86
g3
(S'\x07\xe2\t\x1a\x03\x10*\t\xcb\xd0'
tRp87
aF209.72372665882
aI14
aI1222
aa(lp88
g87
aF209.81
aI1
aI1223
aa(lp89
g87
aF209.81
aI1
aI1224
aa.