(lp1
(lp2
cdatetime
datetime
p3
(S"\x07\xe2\t\x19\x15+'\x04\xabP"
tRp4
aF215.05000000000001
aI1
aI3627
aa(lp5
g4
aF215.05000000000001
aI1
aI3628
aa(lp6
g4
aF215.05000000000001
aI1
aI3629
aa(lp7
g4
aF215.05000000000001
aI1
aI3630
aa(lp8
g4
aF215.05000000000001
aI1
aI3631
aa(lp9
g4
aF215.05000000000001
aI1
aI3632
aa(lp10
g4
aF215.05000000000001
aI1
aI3633
aa(lp11
g4
aF215.05000000000001
aI1
aI3634
aa(lp12
g4
aF215.05000000000001
aI1
aI3635
aa(lp13
g3
(S'\x07\xe2\t\x19\x15+/\x0bb\x10'
tRp14
aF215.05658839012003
aI4
aI3636
aa(lp15
g3
(S'\x07\xe2\t\x19\x15+3\x08\xc20'
tRp16
aF215.21217177352
aI3
aI3637
aa(lp17
g16
aF215.21999999999997
aI1
aI3638
aa(lp18
g3
(S'\x07\xe2\t\x19\x15+5\x0e\xb1\xb8'
tRp19
aF215.24711565380002
aI5
aI3639
aa(lp20
g19
aF215.31999999999999
aI1
aI3640
aa(lp21
g19
aF215.31999999999999
aI1
aI3641
aa(lp22
g19
aF215.31999999999999
aI1
aI3642
aa(lp23
g3
(S'\x07\xe2\t\x19\x15+6\x0f\x13`'
tRp24
aF215.31999999999999
aI2
aI3643
aa(lp25
g3
(S'\x07\xe2\t\x19\x15,\n\t\xcf\xb8'
tRp26
aF215.0628418798
aI6
aI3644
aa(lp27
g26
aF214.88999999999996
aI1
aI3645
aa(lp28
g26
aF214.88999999999996
aI1
aI3646
aa(lp29
g26
aF214.88999999999996
aI1
aI3647
aa(lp30
g26
aF214.88999999999996
aI1
aI3648
aa(lp31
g26
aF214.88999999999996
aI1
aI3649
aa(lp32
g26
aF214.88999999999996
aI1
aI3650
aa(lp33
g26
aF214.88999999999996
aI1
aI3651
aa(lp34
g26
aF214.88999999999996
aI1
aI3652
aa(lp35
g26
aF214.88999999999996
aI1
aI3653
aa(lp36
g26
aF214.88999999999996
aI1
aI3654
aa(lp37
g26
aF214.88999999999996
aI1
aI3655
aa(lp38
g3
(S'\x07\xe2\t\x19\x15,\n\t\xcf\xb8'
tRp39
aF214.88999999999996
aI2
aI3656
aa(lp40
g39
aF214.88999999999996
aI1
aI3657
aa(lp41
g39
aF214.88999999999996
aI1
aI3658
aa(lp42
g39
aF214.88999999999996
aI1
aI3659
aa(lp43
g39
aF214.88999999999996
aI1
aI3660
aa(lp44
g39
aF214.88999999999996
aI1
aI3661
aa(lp45
g39
aF214.88999999999996
aI1
aI3662
aa(lp46
g39
aF214.88999999999996
aI1
aI3663
aa(lp47
g39
aF214.88999999999996
aI1
aI3664
aa(lp48
g39
aF214.88999999999996
aI1
aI3665
aa(lp49
g39
aF214.88999999999996
aI1
aI3666
aa(lp50
g39
aF214.88999999999996
aI1
aI3667
aa(lp51
g39
aF214.88999999999996
aI1
aI3668
aa(lp52
g39
aF214.88999999999996
aI1
aI3669
aa(lp53
g39
aF214.88999999999996
aI1
aI3670
aa(lp54
g3
(S'\x07\xe2\t\x19\x15,\n\r\xe6\x98'
tRp55
aF214.88424929963998
aI2
aI3671
aa(lp56
g55
aF214.88000000000002
aI1
aI3672
aa(lp57
g55
aF214.88000000000002
aI1
aI3673
aa(lp58
g55
aF214.88000000000002
aI1
aI3674
aa(lp59
g55
aF214.88000000000002
aI1
aI3675
aa(lp60
g55
aF214.88000000000002
aI1
aI3676
aa(lp61
g55
aF214.88000000000002
aI1
aI3677
aa(lp62
g55
aF214.88000000000002
aI1
aI3678
aa(lp63
g55
aF214.88000000000002
aI1
aI3679
aa(lp64
g55
aF214.88000000000002
aI1
aI3680
aa(lp65
g55
aF214.88000000000002
aI1
aI3681
aa(lp66
g55
aF214.88000000000002
aI1
aI3682
aa(lp67
g3
(S'\x07\xe2\t\x19\x15,\x14\x0b\x1b\xc0'
tRp68
aF214.8756293751
aI5
aI3683
aa(lp69
g3
(S'\x07\xe2\t\x19\x15,3\rJX'
tRp70
aF214.95608799310003
aI6
aI3684
aa(lp71
g70
aF214.95999999999998
aI1
aI3685
aa(lp72
g3
(S'\x07\xe2\t\x19\x15-\x15\x03\xd4x'
tRp73
aF214.85116781319999
aI8
aI3686
aa(lp74
g3
(S'\x07\xe2\t\x19\x15-\x1b\x06\xe5\xa0'
tRp75
aF214.81848035351999
aI4
aI3687
aa.