(lp1
(lp2
cdatetime
datetime
p3
(S'\x07\xe2\t\x1a\x15\x11\x10\n\xdd@'
tRp4
aF218.73970332980002
aI4
aI0
aa(lp5
g3
(S'\x07\xe2\t\x1a\x15\x11\x10\n\xdd@'
tRp6
aF218.74000000000001
aI2
aI1
aa(lp7
g3
(S'\x07\xe2\t\x1a\x15\x11\x14\x03\xffp'
tRp8
aF218.74138485332
aI4
aI2
aa(lp9
g3
(S'\x07\xe2\t\x1a\x15\x11)\x06pp'
tRp10
aF218.82843230975999
aI6
aI3
aa(lp11
g10
aF219.06999999999999
aI1
aI4
aa(lp12
g3
(S'\x07\xe2\t\x1a\x15\x11)\x06pp'
tRp13
aF219.07904147136
aI2
aI5
aa(lp14
g13
aF219.09
aI1
aI6
aa(lp15
g13
aF219.09
aI1
aI7
aa(lp16
g13
aF219.09
aI1
aI8
aa(lp17
g13
aF219.09
aI1
aI9
aa(lp18
g3
(S'\x07\xe2\t\x1a\x15\x11;\r\x1f`'
tRp19
aF219.1030208736
aI5
aI10
aa.